target datalayout = "e-m:e-p270:32:32-p271:32:32-p272:64:64-i64:64-i128:128-f80:128-n8:16:32:64-S128"
target triple = "x86_64-pc-linux-gnu"

%struct.Curl_easy = type { i32, i64, ptr, ptr, ptr, %struct.Curl_llist_element, %struct.Curl_llist_element, i32, i32, %struct.Curl_message, %struct.easy_pollset, %struct.Names, ptr, ptr, ptr, %struct.SingleRequest, %struct.UserDefined, ptr, ptr, %struct.Progress, %struct.UrlState, ptr, %struct.PureInfo, %struct.curl_tlssessioninfo }
%struct.Curl_llist_element = type { ptr, ptr, ptr }
%struct.Curl_message = type { %struct.Curl_llist_element, %struct.CURLMsg }
%struct.CURLMsg = type { i32, ptr, %union.anon }
%union.anon = type { ptr }
%struct.easy_pollset = type { [5 x i32], i32, [5 x i8] }
%struct.Names = type { ptr, i32 }
%struct.SingleRequest = type <{ i64, i64, i64, i64, i64, %struct.curltime, i32, i32, i32, i32, i64, i32, i32, %struct.curltime, i32, i32, ptr, i64, i64, ptr, ptr, i64, ptr, %union.anon.0, ptr, [2 x i8], i8, i16, [3 x i8] }>
%struct.curltime = type { i64, i32 }
%union.anon.0 = type { ptr }
%struct.UserDefined = type <{ ptr, ptr, ptr, ptr, ptr, ptr, i16, [6 x i8], i64, i64, i64, ptr, ptr, i64, i16, i16, [4 x i8], ptr, ptr, ptr, ptr, ptr, ptr, ptr, ptr, ptr, ptr, ptr, ptr, ptr, ptr, ptr, ptr, ptr, ptr, ptr, ptr, ptr, ptr, ptr, i32, i32, i32, i32, i64, i64, i64, i64, i64, i64, i64, i64, ptr, ptr, %struct.curl_mimepart, ptr, ptr, i64, i8, i8, i8, [5 x i8], %struct.ssl_config_data, %struct.ssl_config_data, ptr, i16, i8, i8, [4 x i8], %struct.ssl_general_config, i32, i32, i32, [4 x i8], ptr, ptr, i8, [7 x i8], i64, i8, i8, i8, i8, i32, ptr, ptr, ptr, i8, i8, [2 x i8], i32, [80 x ptr], [8 x ptr], i32, i32, i32, [4 x i8], ptr, ptr, ptr, ptr, ptr, i8, [3 x i8], i32, i32, [4 x i8], i64, %struct.Curl_data_priority, ptr, ptr, i64, ptr, ptr, ptr, ptr, ptr, i8, [3 x i8], i32, i8, i8, i56, [6 x i8] }>
%struct.curl_mimepart = type { ptr, ptr, i32, i32, ptr, ptr, ptr, ptr, ptr, ptr, ptr, ptr, ptr, ptr, ptr, i64, %struct.mime_state, ptr, %struct.mime_encoder_state, i64 }
%struct.mime_state = type { i32, ptr, i64 }
%struct.mime_encoder_state = type { i64, i64, i64, [256 x i8] }
%struct.ssl_config_data = type { %struct.ssl_primary_config, i64, ptr, ptr, ptr, ptr, ptr, ptr, ptr, i8 }
%struct.ssl_primary_config = type { ptr, ptr, ptr, ptr, ptr, ptr, ptr, ptr, ptr, ptr, ptr, ptr, i8, i32, i8, i8 }
%struct.ssl_general_config = type { i64, i32 }
%struct.Curl_data_priority = type { ptr, ptr, i32, i8 }
%struct.Progress = type { i64, i64, i64, i64, i64, i64, i32, i32, i64, i64, i64, i64, i64, i64, i64, i64, i64, i64, %struct.curltime, %struct.curltime, %struct.curltime, %struct.curltime, %struct.curltime, i64, %struct.curltime, i64, [6 x i64], [6 x %struct.curltime], i32, i8 }
%struct.UrlState = type { ptr, %struct.curltime, i64, i64, %struct.dynbuf, ptr, ptr, ptr, i64, ptr, i32, i32, i32, ptr, i64, [3 x %struct.tempbuf], i32, i32, ptr, i64, i32, ptr, %struct.digestdata, %struct.digestdata, %struct.auth, %struct.auth, %struct.Curl_async, ptr, %struct.curltime, %struct.Curl_tree, %struct.Curl_llist, [15 x %struct.time_node], ptr, i8, i64, ptr, i64, i64, %struct.Curl_data_priority, ptr, ptr, ptr, %struct.urlpieces, ptr, ptr, ptr, ptr, ptr, i64, %struct.dynbuf, %struct.Curl_llist, [2 x %struct.curl_header], ptr, i32, ptr, %struct.dynamically_allocated_data, i8, i8, i8, i8, i24 }
%struct.tempbuf = type { %struct.dynbuf, i32, i8 }
%struct.digestdata = type { ptr, ptr, ptr, ptr, ptr, ptr, i32, i8, i8 }
%struct.auth = type { i64, i64, i64, i8 }
%struct.Curl_async = type { ptr, ptr, ptr, ptr, i32, i32, i8 }
%struct.Curl_tree = type { ptr, ptr, ptr, ptr, %struct.curltime, ptr }
%struct.time_node = type { %struct.Curl_llist_element, %struct.curltime, i32 }
%struct.urlpieces = type { ptr, ptr, ptr, ptr, ptr, ptr, ptr, ptr }
%struct.dynbuf = type { ptr, i64, i64, i64 }
%struct.Curl_llist = type { ptr, ptr, ptr, i64 }
%struct.curl_header = type { ptr, ptr, i64, i64, i32, ptr }
%struct.dynamically_allocated_data = type { ptr, ptr, ptr, ptr, ptr, ptr, ptr, ptr, ptr, ptr, ptr, ptr, ptr, ptr }
%struct.PureInfo = type { i32, i32, i32, i64, i64, i64, i64, i64, ptr, ptr, i64, i32, [46 x i8], i32, i32, [46 x i8], i32, ptr, i32, %struct.curl_certinfo, i32, i8 }
%struct.curl_certinfo = type { i32, ptr }
%struct.curl_tlssessioninfo = type { i32, ptr }
%struct.connectdata = type { %struct.Curl_llist_element, ptr, ptr, i64, ptr, ptr, %struct.hostname, ptr, ptr, %struct.hostname, %struct.proxy_info, %struct.proxy_info, [46 x i8], ptr, ptr, ptr, ptr, ptr, %struct.curltime, %struct.curltime, %struct.curltime, [2 x i32], [2 x ptr], [2 x ptr], [2 x ptr], %struct.ssl_primary_config, %struct.ssl_primary_config, %struct.ConnectBits, ptr, ptr, %struct.curltime, i32, i32, %struct.Curl_llist, ptr, ptr, i32, i32, %struct.ntlmdata, %struct.ntlmdata, %union.anon.1, ptr, ptr, i16, i32, i32, i32, i32, i32, i16, i16, i8, i8, i8, i8, i8, i8, i8 }
%struct.hostname = type { ptr, ptr, ptr, ptr }
%struct.proxy_info = type { %struct.hostname, i32, i8, ptr, ptr }
%struct.ConnectBits = type { i32 }
%struct.ntlmdata = type { i32, [8 x i8], i32, ptr }
%union.anon.1 = type { %struct.ftp_conn }
%struct.ftp_conn = type { %struct.pingpong, ptr, ptr, ptr, ptr, ptr, ptr, ptr, i8, i64, ptr, i64, i32, i32, i32, i32, i32, i16, i8, i8, i8, i8, i8 }
%struct.pingpong = type { i64, i8, ptr, i64, i64, %struct.curltime, i64, %struct.dynbuf, %struct.dynbuf, i64, i64, ptr, ptr }
%struct.smb_conn = type { i32, ptr, ptr, ptr, [8 x i8], i32, i16, ptr, i64, i64, i64, i64 }

; Function Attrs: nounwind uwtable
define internal i32 @smb_recv_message(ptr noundef %0, ptr noundef %1) #0 {
  %3 = alloca i32, align 4
  %4 = alloca ptr, align 8
  %5 = alloca ptr, align 8
  %6 = alloca ptr, align 8
  %7 = alloca i32, align 4
  %8 = alloca ptr, align 8
  %9 = alloca ptr, align 8
  %10 = alloca i64, align 8
  %11 = alloca i64, align 8
  %12 = alloca i64, align 8
  %13 = alloca i64, align 8
  %14 = alloca i32, align 4
  store ptr %0, ptr %4, align 8
  store ptr %1, ptr %5, align 8
  %15 = load ptr, ptr %4, align 8
  %16 = getelementptr inbounds %struct.Curl_easy, ptr %15, i32 0, i32 4
  %17 = load ptr, ptr %16, align 8
  store ptr %17, ptr %6, align 8
  %18 = load ptr, ptr %6, align 8
  %19 = getelementptr inbounds %struct.connectdata, ptr %18, i32 0, i32 21
  %20 = getelementptr inbounds [2 x i32], ptr %19, i64 0, i64 0
  %21 = load i32, ptr %20, align 8
  store i32 %21, ptr %7, align 4
  %22 = load ptr, ptr %6, align 8
  %23 = getelementptr inbounds %struct.connectdata, ptr %22, i32 0, i32 40
  store ptr %23, ptr %8, align 8
  %24 = load ptr, ptr %8, align 8
  %25 = getelementptr inbounds %struct.smb_conn, ptr %24, i32 0, i32 7
  %26 = load ptr, ptr %25, align 8
  store ptr %26, ptr %9, align 8
  %27 = load ptr, ptr %8, align 8
  %28 = getelementptr inbounds %struct.smb_conn, ptr %27, i32 0, i32 11
  %29 = load i64, ptr %28, align 8
  %30 = sub i64 36864, %29
  store i64 %30, ptr %13, align 8
  %31 = load ptr, ptr %4, align 8
  %32 = load i32, ptr %7, align 4
  %33 = load ptr, ptr %9, align 8
  %34 = load ptr, ptr %8, align 8
  %35 = getelementptr inbounds %struct.smb_conn, ptr %34, i32 0, i32 11
  %36 = load i64, ptr %35, align 8
  %37 = getelementptr inbounds i8, ptr %33, i64 %36
  %38 = load i64, ptr %13, align 8
  %39 = call i32 @Curl_read(ptr noundef %31, i32 noundef %32, ptr noundef %37, i64 noundef %38, ptr noundef %10)
  store i32 %39, ptr %14, align 4
  %40 = load i32, ptr %14, align 4
  %41 = icmp ne i32 %40, 0
  br i1 %41, label %42, label %44

42:                                               ; preds = %2
  %43 = load i32, ptr %14, align 4
  store i32 %43, ptr %3, align 4
  br label %108

44:                                               ; preds = %2
  %45 = load i64, ptr %10, align 8
  %46 = icmp ne i64 %45, 0
  br i1 %46, label %48, label %47

47:                                               ; preds = %44
  store i32 0, ptr %3, align 4
  br label %108

48:                                               ; preds = %44
  %49 = load i64, ptr %10, align 8
  %50 = load ptr, ptr %8, align 8
  %51 = getelementptr inbounds %struct.smb_conn, ptr %50, i32 0, i32 11
  %52 = load i64, ptr %51, align 8
  %53 = add i64 %52, %49
  store i64 %53, ptr %51, align 8
  %54 = load ptr, ptr %8, align 8
  %55 = getelementptr inbounds %struct.smb_conn, ptr %54, i32 0, i32 11
  %56 = load i64, ptr %55, align 8
  %57 = icmp ult i64 %56, 4
  br i1 %57, label %58, label %59

58:                                               ; preds = %48
  store i32 0, ptr %3, align 4
  br label %108

59:                                               ; preds = %48
  %60 = load ptr, ptr %9, align 8
  %61 = getelementptr inbounds i8, ptr %60, i64 2
  %62 = call zeroext i16 @Curl_read16_be(ptr noundef %61)
  %63 = zext i16 %62 to i64
  %64 = add i64 %63, 4
  store i64 %64, ptr %11, align 8
  %65 = load ptr, ptr %8, align 8
  %66 = getelementptr inbounds %struct.smb_conn, ptr %65, i32 0, i32 11
  %67 = load i64, ptr %66, align 8
  %68 = load i64, ptr %11, align 8
  %69 = icmp ult i64 %67, %68
  br i1 %69, label %70, label %71

70:                                               ; preds = %59
  store i32 0, ptr %3, align 4
  br label %108

71:                                               ; preds = %59
  store i64 36, ptr %12, align 8
  %72 = load i64, ptr %11, align 8
  %73 = load i64, ptr %12, align 8
  %74 = add i64 %73, 1
  %75 = icmp uge i64 %72, %74
  br i1 %75, label %76, label %105

76:                                               ; preds = %71
  %77 = load ptr, ptr %9, align 8
  %78 = load i64, ptr %12, align 8
  %79 = getelementptr inbounds i8, ptr %77, i64 %78
  %80 = load i8, ptr %79, align 1
  %81 = zext i8 %80 to i64
  %82 = mul i64 %81, 2
  %83 = add i64 1, %82
  %84 = load i64, ptr %12, align 8
  %85 = add i64 %84, %83
  store i64 %85, ptr %12, align 8
  %86 = load i64, ptr %11, align 8
  %87 = load i64, ptr %12, align 8
  %88 = add i64 %87, 2
  %89 = icmp uge i64 %86, %88
  br i1 %89, label %90, label %104

90:                                               ; preds = %76
  %91 = load ptr, ptr %9, align 8
  %92 = load i64, ptr %12, align 8
  %93 = getelementptr inbounds i8, ptr %91, i64 %92
  %94 = call zeroext i16 @Curl_read16_le(ptr noundef %93)
  %95 = zext i16 %94 to i64
  %96 = add i64 2, %95
  %97 = load i64, ptr %12, align 8
  %98 = add i64 %97, %96
  store i64 %98, ptr %12, align 8
  %99 = load i64, ptr %11, align 8
  %100 = load i64, ptr %12, align 8
  %101 = icmp ult i64 %99, %100
  br i1 %101, label %102, label %103

102:                                              ; preds = %90
  store i32 26, ptr %3, align 4
  br label %108

103:                                              ; preds = %90
  br label %104

104:                                              ; preds = %103, %76
  br label %105

105:                                              ; preds = %104, %71
  %106 = load ptr, ptr %9, align 8
  %107 = load ptr, ptr %5, align 8
  store ptr %106, ptr %107, align 8
  store i32 0, ptr %3, align 4
  br label %108

108:                                              ; preds = %105, %102, %70, %58, %47, %42
  %109 = load i32, ptr %3, align 4
  ret i32 %109
}

; Function Attrs: nounwind uwtable
define internal i32 @smb_flush(ptr noundef %0) #0 {
  %2 = alloca i32, align 4
  %3 = alloca ptr, align 8
  %4 = alloca ptr, align 8
  %5 = alloca ptr, align 8
  %6 = alloca i64, align 8
  %7 = alloca i64, align 8
  %8 = alloca i32, align 4
  store ptr %0, ptr %3, align 8
  %9 = load ptr, ptr %3, align 8
  %10 = getelementptr inbounds %struct.Curl_easy, ptr %9, i32 0, i32 4
  %11 = load ptr, ptr %10, align 8
  store ptr %11, ptr %4, align 8
  %12 = load ptr, ptr %4, align 8
  %13 = getelementptr inbounds %struct.connectdata, ptr %12, i32 0, i32 40
  store ptr %13, ptr %5, align 8
  %14 = load ptr, ptr %5, align 8
  %15 = getelementptr inbounds %struct.smb_conn, ptr %14, i32 0, i32 9
  %16 = load i64, ptr %15, align 8
  %17 = load ptr, ptr %5, align 8
  %18 = getelementptr inbounds %struct.smb_conn, ptr %17, i32 0, i32 10
  %19 = load i64, ptr %18, align 8
  %20 = sub i64 %16, %19
  store i64 %20, ptr %7, align 8
  %21 = load ptr, ptr %5, align 8
  %22 = getelementptr inbounds %struct.smb_conn, ptr %21, i32 0, i32 9
  %23 = load i64, ptr %22, align 8
  %24 = icmp ne i64 %23, 0
  br i1 %24, label %26, label %25

25:                                               ; preds = %1
  store i32 0, ptr %2, align 4
  br label %56

26:                                               ; preds = %1
  %27 = load ptr, ptr %3, align 8
  %28 = load ptr, ptr %3, align 8
  %29 = getelementptr inbounds %struct.Curl_easy, ptr %28, i32 0, i32 20
  %30 = getelementptr inbounds %struct.UrlState, ptr %29, i32 0, i32 7
  %31 = load ptr, ptr %30, align 8
  %32 = load ptr, ptr %5, align 8
  %33 = getelementptr inbounds %struct.smb_conn, ptr %32, i32 0, i32 10
  %34 = load i64, ptr %33, align 8
  %35 = getelementptr inbounds i8, ptr %31, i64 %34
  %36 = load i64, ptr %7, align 8
  %37 = call i32 @Curl_nwrite(ptr noundef %27, i32 noundef 0, ptr noundef %35, i64 noundef %36, ptr noundef %6)
  store i32 %37, ptr %8, align 4
  %38 = load i32, ptr %8, align 4
  %39 = icmp ne i32 %38, 0
  br i1 %39, label %40, label %42

40:                                               ; preds = %26
  %41 = load i32, ptr %8, align 4
  store i32 %41, ptr %2, align 4
  br label %56

42:                                               ; preds = %26
  %43 = load i64, ptr %6, align 8
  %44 = load i64, ptr %7, align 8
  %45 = icmp ne i64 %43, %44
  br i1 %45, label %46, label %52

46:                                               ; preds = %42
  %47 = load i64, ptr %6, align 8
  %48 = load ptr, ptr %5, align 8
  %49 = getelementptr inbounds %struct.smb_conn, ptr %48, i32 0, i32 10
  %50 = load i64, ptr %49, align 8
  %51 = add i64 %50, %47
  store i64 %51, ptr %49, align 8
  br label %55

52:                                               ; preds = %42
  %53 = load ptr, ptr %5, align 8
  %54 = getelementptr inbounds %struct.smb_conn, ptr %53, i32 0, i32 9
  store i64 0, ptr %54, align 8
  br label %55

55:                                               ; preds = %52, %46
  store i32 0, ptr %2, align 4
  br label %56

56:                                               ; preds = %55, %40, %25
  %57 = load i32, ptr %2, align 4
  ret i32 %57
}

; Function Attrs: nounwind uwtable
define internal i32 @smb_send_and_recv(ptr noundef %0, ptr noundef %1) #0 {
  %3 = alloca i32, align 4
  %4 = alloca ptr, align 8
  %5 = alloca ptr, align 8
  %6 = alloca ptr, align 8
  %7 = alloca ptr, align 8
  %8 = alloca i32, align 4
  %9 = alloca i64, align 8
  store ptr %0, ptr %4, align 8
  store ptr %1, ptr %5, align 8
  %10 = load ptr, ptr %4, align 8
  %11 = getelementptr inbounds %struct.Curl_easy, ptr %10, i32 0, i32 4
  %12 = load ptr, ptr %11, align 8
  store ptr %12, ptr %6, align 8
  %13 = load ptr, ptr %6, align 8
  %14 = getelementptr inbounds %struct.connectdata, ptr %13, i32 0, i32 40
  store ptr %14, ptr %7, align 8
  %15 = load ptr, ptr %5, align 8
  store ptr null, ptr %15, align 8
  %16 = load ptr, ptr %7, align 8
  %17 = getelementptr inbounds %struct.smb_conn, ptr %16, i32 0, i32 9
  %18 = load i64, ptr %17, align 8
  %19 = icmp ne i64 %18, 0
  br i1 %19, label %79, label %20

20:                                               ; preds = %2
  %21 = load ptr, ptr %7, align 8
  %22 = getelementptr inbounds %struct.smb_conn, ptr %21, i32 0, i32 8
  %23 = load i64, ptr %22, align 8
  %24 = icmp ne i64 %23, 0
  br i1 %24, label %25, label %79

25:                                               ; preds = %20
  %26 = load ptr, ptr %7, align 8
  %27 = getelementptr inbounds %struct.smb_conn, ptr %26, i32 0, i32 8
  %28 = load i64, ptr %27, align 8
  %29 = load ptr, ptr %4, align 8
  %30 = getelementptr inbounds %struct.Curl_easy, ptr %29, i32 0, i32 16
  %31 = getelementptr inbounds %struct.UserDefined, ptr %30, i32 0, i32 72
  %32 = load i32, ptr %31, align 8
  %33 = zext i32 %32 to i64
  %34 = icmp ugt i64 %28, %33
  br i1 %34, label %35, label %41

35:                                               ; preds = %25
  %36 = load ptr, ptr %4, align 8
  %37 = getelementptr inbounds %struct.Curl_easy, ptr %36, i32 0, i32 16
  %38 = getelementptr inbounds %struct.UserDefined, ptr %37, i32 0, i32 72
  %39 = load i32, ptr %38, align 8
  %40 = zext i32 %39 to i64
  br label %45

41:                                               ; preds = %25
  %42 = load ptr, ptr %7, align 8
  %43 = getelementptr inbounds %struct.smb_conn, ptr %42, i32 0, i32 8
  %44 = load i64, ptr %43, align 8
  br label %45

45:                                               ; preds = %41, %35
  %46 = phi i64 [ %40, %35 ], [ %44, %41 ]
  store i64 %46, ptr %9, align 8
  %47 = load ptr, ptr %4, align 8
  %48 = getelementptr inbounds %struct.Curl_easy, ptr %47, i32 0, i32 20
  %49 = getelementptr inbounds %struct.UrlState, ptr %48, i32 0, i32 7
  %50 = load ptr, ptr %49, align 8
  %51 = load ptr, ptr %4, align 8
  %52 = getelementptr inbounds %struct.Curl_easy, ptr %51, i32 0, i32 15
  %53 = getelementptr inbounds %struct.SingleRequest, ptr %52, i32 0, i32 22
  store ptr %50, ptr %53, align 8
  %54 = load ptr, ptr %4, align 8
  %55 = load i64, ptr %9, align 8
  %56 = call i32 @Curl_fillreadbuffer(ptr noundef %54, i64 noundef %55, ptr noundef %9)
  store i32 %56, ptr %8, align 4
  %57 = load i32, ptr %8, align 4
  %58 = icmp ne i32 %57, 0
  br i1 %58, label %59, label %64

59:                                               ; preds = %45
  %60 = load i32, ptr %8, align 4
  %61 = icmp ne i32 %60, 81
  br i1 %61, label %62, label %64

62:                                               ; preds = %59
  %63 = load i32, ptr %8, align 4
  store i32 %63, ptr %3, align 4
  br label %107

64:                                               ; preds = %59, %45
  %65 = load i64, ptr %9, align 8
  %66 = icmp ne i64 %65, 0
  br i1 %66, label %68, label %67

67:                                               ; preds = %64
  store i32 0, ptr %3, align 4
  br label %107

68:                                               ; preds = %64
  %69 = load i64, ptr %9, align 8
  %70 = load ptr, ptr %7, align 8
  %71 = getelementptr inbounds %struct.smb_conn, ptr %70, i32 0, i32 8
  %72 = load i64, ptr %71, align 8
  %73 = sub i64 %72, %69
  store i64 %73, ptr %71, align 8
  %74 = load i64, ptr %9, align 8
  %75 = load ptr, ptr %7, align 8
  %76 = getelementptr inbounds %struct.smb_conn, ptr %75, i32 0, i32 9
  store i64 %74, ptr %76, align 8
  %77 = load ptr, ptr %7, align 8
  %78 = getelementptr inbounds %struct.smb_conn, ptr %77, i32 0, i32 10
  store i64 0, ptr %78, align 8
  br label %79

79:                                               ; preds = %68, %20, %2
  %80 = load ptr, ptr %7, align 8
  %81 = getelementptr inbounds %struct.smb_conn, ptr %80, i32 0, i32 9
  %82 = load i64, ptr %81, align 8
  %83 = icmp ne i64 %82, 0
  br i1 %83, label %84, label %92

84:                                               ; preds = %79
  %85 = load ptr, ptr %4, align 8
  %86 = call i32 @smb_flush(ptr noundef %85)
  store i32 %86, ptr %8, align 4
  %87 = load i32, ptr %8, align 4
  %88 = icmp ne i32 %87, 0
  br i1 %88, label %89, label %91

89:                                               ; preds = %84
  %90 = load i32, ptr %8, align 4
  store i32 %90, ptr %3, align 4
  br label %107

91:                                               ; preds = %84
  br label %92

92:                                               ; preds = %91, %79
  %93 = load ptr, ptr %7, align 8
  %94 = getelementptr inbounds %struct.smb_conn, ptr %93, i32 0, i32 9
  %95 = load i64, ptr %94, align 8
  %96 = icmp ne i64 %95, 0
  br i1 %96, label %102, label %97

97:                                               ; preds = %92
  %98 = load ptr, ptr %7, align 8
  %99 = getelementptr inbounds %struct.smb_conn, ptr %98, i32 0, i32 8
  %100 = load i64, ptr %99, align 8
  %101 = icmp ne i64 %100, 0
  br i1 %101, label %102, label %103

102:                                              ; preds = %97, %92
  store i32 81, ptr %3, align 4
  br label %107

103:                                              ; preds = %97
  %104 = load ptr, ptr %4, align 8
  %105 = load ptr, ptr %5, align 8
  %106 = call i32 @smb_recv_message(ptr noundef %104, ptr noundef %105)
  store i32 %106, ptr %3, align 4
  br label %107

107:                                              ; preds = %103, %102, %89, %67, %62
  %108 = load i32, ptr %3, align 4
  ret i32 %108
}