; Function Attrs: nounwind uwtable
define internal fastcc i32 @smb_send_and_recv(ptr noundef %0, ptr noundef nonnull writeonly captures(none) initializes((0, 8)) %1) unnamed_addr #0 {
  %3 = alloca i64, align 8
  %4 = alloca i64, align 8
  %5 = alloca i64, align 8
  %6 = getelementptr inbounds nuw i8, ptr %0, i64 32
  %7 = load ptr, ptr %6, align 8
  store ptr null, ptr %1, align 8
  %8 = getelementptr inbounds nuw i8, ptr %7, i64 888
  %9 = load i64, ptr %8, align 8
  %.not = icmp eq i64 %9, 0
  br i1 %.not, label %10, label %.thread

10:                                               ; preds = %2
  %11 = getelementptr inbounds nuw i8, ptr %7, i64 880
  %12 = load i64, ptr %11, align 8
  %.not32 = icmp eq i64 %12, 0
  br i1 %.not32, label %.thread44.thread, label %13

13:                                               ; preds = %10
  %14 = getelementptr inbounds nuw i8, ptr %0, i64 1680
  %15 = load i32, ptr %14, align 8
  %16 = zext i32 %15 to i64
  %. = tail call i64 @llvm.umin.i64(i64 %12, i64 %16)
  store i64 %., ptr %5, align 8
  %17 = getelementptr inbounds nuw i8, ptr %0, i64 3160
  %18 = load ptr, ptr %17, align 8
  %19 = getelementptr inbounds nuw i8, ptr %0, i64 376
  store ptr %18, ptr %19, align 8
  %20 = call i32 @Curl_fillreadbuffer(ptr noundef nonnull %0, i64 noundef %., ptr noundef nonnull %5) #12
  switch i32 %20, label %85 [
    i32 81, label %21
    i32 0, label %21
  ]

21:                                               ; preds = %13, %13
  %22 = load i64, ptr %5, align 8
  %.not33 = icmp eq i64 %22, 0
  br i1 %.not33, label %85, label %23

23:                                               ; preds = %21
  %24 = load i64, ptr %11, align 8
  %25 = sub i64 %24, %22
  store i64 %25, ptr %11, align 8
  store i64 %22, ptr %8, align 8
  %26 = getelementptr inbounds nuw i8, ptr %7, i64 896
  store i64 0, ptr %26, align 8
  br label %.thread

.thread:                                          ; preds = %2, %23
  call void @llvm.lifetime.start.p0(i64 8, ptr nonnull %4)
  %27 = load ptr, ptr %6, align 8
  %28 = getelementptr inbounds nuw i8, ptr %27, i64 888
  %29 = load i64, ptr %28, align 8
  %30 = getelementptr inbounds nuw i8, ptr %27, i64 896
  %31 = load i64, ptr %30, align 8
  %32 = sub i64 %29, %31
  %.not.i = icmp eq i64 %29, 0
  br i1 %.not.i, label %44, label %33

33:                                               ; preds = %.thread
  %34 = getelementptr inbounds nuw i8, ptr %0, i64 3160
  %35 = load ptr, ptr %34, align 8
  %36 = getelementptr inbounds i8, ptr %35, i64 %31
  %37 = call i32 @Curl_nwrite(ptr noundef nonnull %0, i32 noundef 0, ptr noundef %36, i64 noundef %32, ptr noundef nonnull %4) #12
  %.not16.i = icmp eq i32 %37, 0
  br i1 %.not16.i, label %38, label %smb_flush.exit

38:                                               ; preds = %33
  %39 = load i64, ptr %4, align 8
  %.not17.i = icmp eq i64 %39, %32
  br i1 %.not17.i, label %43, label %40

40:                                               ; preds = %38
  %41 = load i64, ptr %30, align 8
  %42 = add i64 %41, %39
  store i64 %42, ptr %30, align 8
  br label %44

43:                                               ; preds = %38
  store i64 0, ptr %28, align 8
  br label %44

smb_flush.exit:                                   ; preds = %33
  call void @llvm.lifetime.end.p0(i64 8, ptr nonnull %4)
  br label %85

44:                                               ; preds = %.thread, %43, %40
  call void @llvm.lifetime.end.p0(i64 8, ptr nonnull %4)
  %.pr43 = load i64, ptr %8, align 8
  %.not36 = icmp eq i64 %.pr43, 0
  br i1 %.not36, label %.thread44, label %85

.thread44:                                        ; preds = %44
  %.phi.trans.insert = getelementptr inbounds nuw i8, ptr %7, i64 880
  %.pre = load i64, ptr %.phi.trans.insert, align 8
  %45 = icmp eq i64 %.pre, 0
  br i1 %45, label %.thread44.thread, label %85

.thread44.thread:                                 ; preds = %10, %.thread44
  call void @llvm.lifetime.start.p0(i64 8, ptr nonnull %3)
  %46 = load ptr, ptr %6, align 8
  %47 = getelementptr inbounds nuw i8, ptr %46, i64 392
  %48 = load i32, ptr %47, align 8
  %49 = getelementptr inbounds nuw i8, ptr %46, i64 872
  %50 = load ptr, ptr %49, align 8
  %51 = getelementptr inbounds nuw i8, ptr %46, i64 904
  %52 = load i64, ptr %51, align 8
  %53 = sub i64 36864, %52
  %54 = getelementptr inbounds i8, ptr %50, i64 %52
  %55 = call i32 @Curl_read(ptr noundef nonnull %0, i32 noundef %48, ptr noundef %54, i64 noundef %53, ptr noundef nonnull %3) #12
  %.not.i38 = icmp eq i32 %55, 0
  br i1 %.not.i38, label %56, label %smb_recv_message.exit

56:                                               ; preds = %.thread44.thread
  %57 = load i64, ptr %3, align 8
  %.not34.i = icmp eq i64 %57, 0
  br i1 %.not34.i, label %smb_recv_message.exit, label %58

58:                                               ; preds = %56
  %59 = load i64, ptr %51, align 8
  %60 = add i64 %59, %57
  store i64 %60, ptr %51, align 8
  %61 = icmp ult i64 %60, 4
  br i1 %61, label %smb_recv_message.exit, label %62

62:                                               ; preds = %58
  %63 = getelementptr inbounds nuw i8, ptr %50, i64 2
  %64 = call zeroext i16 @Curl_read16_be(ptr noundef nonnull %63) #12
  %65 = zext i16 %64 to i64
  %66 = add nuw nsw i64 %65, 4
  %67 = load i64, ptr %51, align 8
  %68 = icmp ult i64 %67, %66
  br i1 %68, label %smb_recv_message.exit, label %69

69:                                               ; preds = %62
  %70 = icmp ugt i16 %64, 32
  br i1 %70, label %71, label %84

71:                                               ; preds = %69
  %72 = getelementptr inbounds nuw i8, ptr %50, i64 36
  %73 = load i8, ptr %72, align 1
  %74 = zext i8 %73 to i64
  %75 = shl nuw nsw i64 %74, 1
  %76 = add nuw nsw i64 %75, 39
  %.not35.i = icmp samesign ult i64 %66, %76
  br i1 %.not35.i, label %84, label %77

77:                                               ; preds = %71
  %78 = getelementptr inbounds nuw i8, ptr %50, i64 %75
  %79 = getelementptr inbounds nuw i8, ptr %78, i64 37
  %80 = call zeroext i16 @Curl_read16_le(ptr noundef nonnull %79) #12
  %81 = zext i16 %80 to i64
  %82 = add nuw nsw i64 %76, %81
  %83 = icmp samesign ult i64 %66, %82
  br i1 %83, label %smb_recv_message.exit, label %84

84:                                               ; preds = %77, %71, %69
  store ptr %50, ptr %1, align 8
  br label %smb_recv_message.exit

smb_recv_message.exit:                            ; preds = %.thread44.thread, %56, %58, %62, %77, %84
  %.0.i39 = phi i32 [ 0, %84 ], [ %55, %.thread44.thread ], [ 0, %56 ], [ 0, %58 ], [ 0, %62 ], [ 26, %77 ]
  call void @llvm.lifetime.end.p0(i64 8, ptr nonnull %3)
  br label %85

85:                                               ; preds = %smb_flush.exit, %13, %44, %.thread44, %21, %smb_recv_message.exit
  %.0 = phi i32 [ %.0.i39, %smb_recv_message.exit ], [ %20, %13 ], [ 0, %21 ], [ %37, %smb_flush.exit ], [ 81, %.thread44 ], [ 81, %44 ]
  ret i32 %.0
}